target datalayout = "e-m:e-p270:32:32-p271:32:32-p272:64:64-i64:64-i128:128-f80:128-n8:16:32:64-S128"
target triple = "x86_64-pc-linux-gnu"

%struct.mbedtls_mpi = type { i32, i64, ptr }

; Function Attrs: mustprogress nounwind uwtable
define hidden i32 @mbedtls_mpi_cmp_abs(ptr noundef %0, ptr noundef %1) #0 {
  %3 = alloca i32, align 4
  %4 = alloca ptr, align 8
  %5 = alloca ptr, align 8
  %6 = alloca i64, align 8
  %7 = alloca i64, align 8
  %8 = alloca i32, align 4
  store ptr %0, ptr %4, align 8, !tbaa !3
  store ptr %1, ptr %5, align 8, !tbaa !3
  call void @llvm.lifetime.start.p0(i64 8, ptr %6) #10
  call void @llvm.lifetime.start.p0(i64 8, ptr %7) #10
  br label %9

9:                                                ; preds = %2
  br label %10

10:                                               ; preds = %9
  br label %11

11:                                               ; preds = %10
  br label %12

12:                                               ; preds = %11
  br label %13

13:                                               ; preds = %12
  br label %14

14:                                               ; preds = %13
  %15 = load ptr, ptr %4, align 8, !tbaa !3
  %16 = getelementptr inbounds nuw %struct.mbedtls_mpi, ptr %15, i32 0, i32 1
  %17 = load i64, ptr %16, align 8, !tbaa !13
  store i64 %17, ptr %6, align 8, !tbaa !16
  br label %18

18:                                               ; preds = %32, %14
  %19 = load i64, ptr %6, align 8, !tbaa !16
  %20 = icmp ugt i64 %19, 0
  br i1 %20, label %21, label %35

21:                                               ; preds = %18
  %22 = load ptr, ptr %4, align 8, !tbaa !3
  %23 = getelementptr inbounds nuw %struct.mbedtls_mpi, ptr %22, i32 0, i32 2
  %24 = load ptr, ptr %23, align 8, !tbaa !14
  %25 = load i64, ptr %6, align 8, !tbaa !16
  %26 = sub i64 %25, 1
  %27 = getelementptr inbounds nuw i64, ptr %24, i64 %26
  %28 = load i64, ptr %27, align 8, !tbaa !16
  %29 = icmp ne i64 %28, 0
  br i1 %29, label %30, label %31

30:                                               ; preds = %21
  br label %35

31:                                               ; preds = %21
  br label %32

32:                                               ; preds = %31
  %33 = load i64, ptr %6, align 8, !tbaa !16
  %34 = add i64 %33, -1
  store i64 %34, ptr %6, align 8, !tbaa !16
  br label %18, !llvm.loop !48

35:                                               ; preds = %30, %18
  %36 = load ptr, ptr %5, align 8, !tbaa !3
  %37 = getelementptr inbounds nuw %struct.mbedtls_mpi, ptr %36, i32 0, i32 1
  %38 = load i64, ptr %37, align 8, !tbaa !13
  store i64 %38, ptr %7, align 8, !tbaa !16
  br label %39

39:                                               ; preds = %53, %35
  %40 = load i64, ptr %7, align 8, !tbaa !16
  %41 = icmp ugt i64 %40, 0
  br i1 %41, label %42, label %56

42:                                               ; preds = %39
  %43 = load ptr, ptr %5, align 8, !tbaa !3
  %44 = getelementptr inbounds nuw %struct.mbedtls_mpi, ptr %43, i32 0, i32 2
  %45 = load ptr, ptr %44, align 8, !tbaa !14
  %46 = load i64, ptr %7, align 8, !tbaa !16
  %47 = sub i64 %46, 1
  %48 = getelementptr inbounds nuw i64, ptr %45, i64 %47
  %49 = load i64, ptr %48, align 8, !tbaa !16
  %50 = icmp ne i64 %49, 0
  br i1 %50, label %51, label %52

51:                                               ; preds = %42
  br label %56

52:                                               ; preds = %42
  br label %53

53:                                               ; preds = %52
  %54 = load i64, ptr %7, align 8, !tbaa !16
  %55 = add i64 %54, -1
  store i64 %55, ptr %7, align 8, !tbaa !16
  br label %39, !llvm.loop !49

56:                                               ; preds = %51, %39
  %57 = load i64, ptr %6, align 8, !tbaa !16
  %58 = icmp eq i64 %57, 0
  br i1 %58, label %59, label %63

59:                                               ; preds = %56
  %60 = load i64, ptr %7, align 8, !tbaa !16
  %61 = icmp eq i64 %60, 0
  br i1 %61, label %62, label %63

62:                                               ; preds = %59
  store i32 0, ptr %3, align 4
  store i32 1, ptr %8, align 4
  br label %116

63:                                               ; preds = %59, %56
  %64 = load i64, ptr %6, align 8, !tbaa !16
  %65 = load i64, ptr %7, align 8, !tbaa !16
  %66 = icmp ugt i64 %64, %65
  br i1 %66, label %67, label %68

67:                                               ; preds = %63
  store i32 1, ptr %3, align 4
  store i32 1, ptr %8, align 4
  br label %116

68:                                               ; preds = %63
  %69 = load i64, ptr %7, align 8, !tbaa !16
  %70 = load i64, ptr %6, align 8, !tbaa !16
  %71 = icmp ugt i64 %69, %70
  br i1 %71, label %72, label %73

72:                                               ; preds = %68
  store i32 -1, ptr %3, align 4
  store i32 1, ptr %8, align 4
  br label %116

73:                                               ; preds = %68
  br label %74

74:                                               ; preds = %112, %73
  %75 = load i64, ptr %6, align 8, !tbaa !16
  %76 = icmp ugt i64 %75, 0
  br i1 %76, label %77, label %115

77:                                               ; preds = %74
  %78 = load ptr, ptr %4, align 8, !tbaa !3
  %79 = getelementptr inbounds nuw %struct.mbedtls_mpi, ptr %78, i32 0, i32 2
  %80 = load ptr, ptr %79, align 8, !tbaa !14
  %81 = load i64, ptr %6, align 8, !tbaa !16
  %82 = sub i64 %81, 1
  %83 = getelementptr inbounds nuw i64, ptr %80, i64 %82
  %84 = load i64, ptr %83, align 8, !tbaa !16
  %85 = load ptr, ptr %5, align 8, !tbaa !3
  %86 = getelementptr inbounds nuw %struct.mbedtls_mpi, ptr %85, i32 0, i32 2
  %87 = load ptr, ptr %86, align 8, !tbaa !14
  %88 = load i64, ptr %6, align 8, !tbaa !16
  %89 = sub i64 %88, 1
  %90 = getelementptr inbounds nuw i64, ptr %87, i64 %89
  %91 = load i64, ptr %90, align 8, !tbaa !16
  %92 = icmp ugt i64 %84, %91
  br i1 %92, label %93, label %94

93:                                               ; preds = %77
  store i32 1, ptr %3, align 4
  store i32 1, ptr %8, align 4
  br label %116

94:                                               ; preds = %77
  %95 = load ptr, ptr %4, align 8, !tbaa !3
  %96 = getelementptr inbounds nuw %struct.mbedtls_mpi, ptr %95, i32 0, i32 2
  %97 = load ptr, ptr %96, align 8, !tbaa !14
  %98 = load i64, ptr %6, align 8, !tbaa !16
  %99 = sub i64 %98, 1
  %100 = getelementptr inbounds nuw i64, ptr %97, i64 %99
  %101 = load i64, ptr %100, align 8, !tbaa !16
  %102 = load ptr, ptr %5, align 8, !tbaa !3
  %103 = getelementptr inbounds nuw %struct.mbedtls_mpi, ptr %102, i32 0, i32 2
  %104 = load ptr, ptr %103, align 8, !tbaa !14
  %105 = load i64, ptr %6, align 8, !tbaa !16
  %106 = sub i64 %105, 1
  %107 = getelementptr inbounds nuw i64, ptr %104, i64 %106
  %108 = load i64, ptr %107, align 8, !tbaa !16
  %109 = icmp ult i64 %101, %108
  br i1 %109, label %110, label %111

110:                                              ; preds = %94
  store i32 -1, ptr %3, align 4
  store i32 1, ptr %8, align 4
  br label %116

111:                                              ; preds = %94
  br label %112

112:                                              ; preds = %111
  %113 = load i64, ptr %6, align 8, !tbaa !16
  %114 = add i64 %113, -1
  store i64 %114, ptr %6, align 8, !tbaa !16
  br label %74, !llvm.loop !50

115:                                              ; preds = %74
  store i32 0, ptr %3, align 4
  store i32 1, ptr %8, align 4
  br label %116

116:                                              ; preds = %115, %110, %93, %72, %67, %62
  call void @llvm.lifetime.end.p0(i64 8, ptr %7) #10
  call void @llvm.lifetime.end.p0(i64 8, ptr %6) #10
  %117 = load i32, ptr %3, align 4
  ret i32 %117
}