; Function Attrs: mustprogress nofree norecurse nosync nounwind willreturn memory(read, inaccessiblemem: none) uwtable
define hidden range(i32 -1, 2) i32 @mbedtls_mpi_cmp_abs(ptr noundef readonly captures(none) %0, ptr noundef readonly captures(none) %1) local_unnamed_addr #8 {
  %3 = getelementptr inbounds nuw i8, ptr %0, i64 8
  %4 = load i64, ptr %3, align 8, !tbaa !12
  %.not35 = icmp eq i64 %4, 0
  br i1 %.not35, label %._crit_edge, label %.lr.ph

.lr.ph:                                           ; preds = %2
  %5 = getelementptr inbounds nuw i8, ptr %0, i64 16
  %6 = load ptr, ptr %5, align 8, !tbaa !11
  %invariant.gep = getelementptr i8, ptr %6, i64 -8
  br label %7

7:                                                ; preds = %.lr.ph, %9
  %.02736 = phi i64 [ %4, %.lr.ph ], [ %10, %9 ]
  %gep = getelementptr i64, ptr %invariant.gep, i64 %.02736
  %8 = load i64, ptr %gep, align 8, !tbaa !13
  %.not31 = icmp eq i64 %8, 0
  br i1 %.not31, label %9, label %._crit_edge

9:                                                ; preds = %7
  %10 = add i64 %.02736, -1
  %.not = icmp eq i64 %10, 0
  br i1 %.not, label %._crit_edge, label %7, !llvm.loop !41

._crit_edge:                                      ; preds = %9, %7, %2
  %.027.lcssa = phi i64 [ 0, %2 ], [ %.02736, %7 ], [ 0, %9 ]
  %11 = getelementptr inbounds nuw i8, ptr %1, i64 8
  %12 = load i64, ptr %11, align 8, !tbaa !12
  %.not3239 = icmp eq i64 %12, 0
  br i1 %.not3239, label %._crit_edge43, label %.lr.ph42

.lr.ph42:                                         ; preds = %._crit_edge
  %13 = getelementptr inbounds nuw i8, ptr %1, i64 16
  %14 = load ptr, ptr %13, align 8, !tbaa !11
  %invariant.gep47 = getelementptr i8, ptr %14, i64 -8
  br label %15

15:                                               ; preds = %.lr.ph42, %17
  %.040 = phi i64 [ %12, %.lr.ph42 ], [ %18, %17 ]
  %gep48 = getelementptr i64, ptr %invariant.gep47, i64 %.040
  %16 = load i64, ptr %gep48, align 8, !tbaa !13
  %.not33 = icmp eq i64 %16, 0
  br i1 %.not33, label %17, label %._crit_edge43

17:                                               ; preds = %15
  %18 = add i64 %.040, -1
  %.not32 = icmp eq i64 %18, 0
  br i1 %.not32, label %._crit_edge43, label %15, !llvm.loop !42

._crit_edge43:                                    ; preds = %17, %15, %._crit_edge
  %.0.lcssa = phi i64 [ 0, %._crit_edge ], [ %.040, %15 ], [ 0, %17 ]
  %19 = or i64 %.0.lcssa, %.027.lcssa
  %or.cond = icmp eq i64 %19, 0
  br i1 %or.cond, label %.loopexit, label %20

20:                                               ; preds = %._crit_edge43
  %21 = icmp ugt i64 %.027.lcssa, %.0.lcssa
  br i1 %21, label %.loopexit, label %22

22:                                               ; preds = %20
  %23 = icmp ugt i64 %.0.lcssa, %.027.lcssa
  br i1 %23, label %.loopexit, label %.preheader

.preheader:                                       ; preds = %22
  %24 = getelementptr inbounds nuw i8, ptr %0, i64 16
  %25 = getelementptr inbounds nuw i8, ptr %1, i64 16
  br label %26

26:                                               ; preds = %.preheader, %36
  %.1 = phi i64 [ %29, %36 ], [ %.027.lcssa, %.preheader ]
  %.not34 = icmp eq i64 %.1, 0
  br i1 %.not34, label %.loopexit, label %27

27:                                               ; preds = %26
  %28 = load ptr, ptr %24, align 8, !tbaa !11
  %29 = add i64 %.1, -1
  %30 = getelementptr inbounds nuw i64, ptr %28, i64 %29
  %31 = load i64, ptr %30, align 8, !tbaa !13
  %32 = load ptr, ptr %25, align 8, !tbaa !11
  %33 = getelementptr inbounds nuw i64, ptr %32, i64 %29
  %34 = load i64, ptr %33, align 8, !tbaa !13
  %35 = icmp ugt i64 %31, %34
  br i1 %35, label %.loopexit, label %36

36:                                               ; preds = %27
  %37 = icmp ult i64 %31, %34
  br i1 %37, label %.loopexit, label %26, !llvm.loop !43

.loopexit:                                        ; preds = %26, %36, %27, %22, %20, %._crit_edge43
  %.028 = phi i32 [ 0, %._crit_edge43 ], [ 1, %20 ], [ -1, %22 ], [ 0, %26 ], [ -1, %36 ], [ 1, %27 ]
  ret i32 %.028
}